; Function Attrs: nounwind uwtable
define ptr @Abc_NtkDecFromTruth(ptr noundef %0, i32 noundef %1, i32 noundef %2) local_unnamed_addr #0 {
  %4 = tail call noalias dereferenceable_or_null(16) ptr @malloc(i64 noundef 16) #14
  %5 = getelementptr inbounds nuw i8, ptr %4, i64 4
  store i32 0, ptr %5, align 4
  store i32 65536, ptr %4, align 8
  %6 = tail call noalias dereferenceable_or_null(262144) ptr @malloc(i64 noundef 262144) #14
  %7 = getelementptr inbounds nuw i8, ptr %4, i64 8
  store ptr %6, ptr %7, align 8
  %8 = tail call ptr @Abc_NtkAlloc(i32 noundef 2, i32 noundef 1, i32 noundef 1) #15
  %9 = getelementptr inbounds nuw i8, ptr %8, i64 256
  %10 = load ptr, ptr %9, align 8
  %11 = tail call ptr @Abc_SopCreateFromTruthIsop(ptr noundef %10, i32 noundef %1, ptr noundef %0, ptr noundef nonnull %4) #15
  %12 = tail call ptr @Abc_NtkCreateWithNode(ptr noundef %11) #15
  %13 = tail call ptr @Abc_NtkLutmin(ptr noundef %12, i32 noundef %2, i32 noundef 0) #15
  tail call void @Abc_NtkDelete(ptr noundef %8) #15
  tail call void @Abc_NtkDelete(ptr noundef %12) #15
  %14 = load ptr, ptr %7, align 8
  %.not.i = icmp eq ptr %14, null
  br i1 %.not.i, label %Vec_IntFree.exit, label %15

15:                                               ; preds = %3
  tail call void @free(ptr noundef nonnull %14) #15
  br label %Vec_IntFree.exit

Vec_IntFree.exit:                                 ; preds = %3, %15
  tail call void @free(ptr noundef nonnull %4) #15
  %16 = tail call i32 @Abc_NtkToAig(ptr noundef %13) #15
  %.not = icmp eq i32 %16, 0
  br i1 %.not, label %17, label %20

17:                                               ; preds = %Vec_IntFree.exit
  tail call void @Abc_NtkDelete(ptr noundef %13) #15
  %18 = load ptr, ptr @stdout, align 8
  %19 = tail call i64 @fwrite(ptr nonnull @.str, i64 30, i64 1, ptr %18)
  br label %20

20:                                               ; preds = %Vec_IntFree.exit, %17
  %.0 = phi ptr [ null, %17 ], [ %13, %Vec_IntFree.exit ]
  ret ptr %.0
}